(lp0
(dp1
S'resistor_val'
p2
S'79'
p3
sS'digi_temp'
p4
S'34'
p5
sS'dimming_val'
p6
S'127'
p7
sS'time'
p8
I1429364451
sa(dp9
g2
S'75'
p10
sg4
S'34'
p11
sg6
S'127'
p12
sg8
I1429364453
sa(dp13
g2
S'78'
p14
sg4
S'34'
p15
sg6
S'127'
p16
sg8
I1429364455
sa(dp17
g2
S'74'
p18
sg4
S'34'
p19
sg6
S'127'
p20
sg8
I1429364457
sa(dp21
g2
S'76'
p22
sg4
S'34'
p23
sg6
S'127'
p24
sg8
I1429364459
sa(dp25
g2
S'74'
p26
sg4
S'34'
p27
sg6
S'127'
p28
sg8
I1429364461
sa(dp29
g2
S'78'
p30
sg4
S'34'
p31
sg6
S'127'
p32
sg8
I1429364463
sa(dp33
g2
S'78'
p34
sg4
S'34'
p35
sg6
S'127'
p36
sg8
I1429364465
sa(dp37
g2
S'77'
p38
sg4
S'34'
p39
sg6
S'127'
p40
sg8
I1429364467
sa(dp41
g2
S'76'
p42
sg4
S'34'
p43
sg6
S'127'
p44
sg8
I1429364469
sa(dp45
g2
S'78'
p46
sg4
S'34'
p47
sg6
S'127'
p48
sg8
I1429364471
sa(dp49
g2
S'74'
p50
sg4
S'34'
p51
sg6
S'127'
p52
sg8
I1429364473
sa(dp53
g2
S'78'
p54
sg4
S'34'
p55
sg6
S'127'
p56
sg8
I1429364475
sa(dp57
g2
S'76'
p58
sg4
S'34'
p59
sg6
S'127'
p60
sg8
I1429364477
sa(dp61
g2
S'75'
p62
sg4
S'34'
p63
sg6
S'127'
p64
sg8
I1429364479
sa(dp65
g2
S'75'
p66
sg4
S'34'
p67
sg6
S'127'
p68
sg8
I1429364481
sa(dp69
g2
S'75'
p70
sg4
S'33'
p71
sg6
S'127'
p72
sg8
I1429364483
sa(dp73
g2
S'75'
p74
sg4
S'34'
p75
sg6
S'127'
p76
sg8
I1429364485
sa(dp77
g2
S'76'
p78
sg4
S'33'
p79
sg6
S'127'
p80
sg8
I1429364487
sa(dp81
g2
S'77'
p82
sg4
S'34'
p83
sg6
S'127'
p84
sg8
I1429364489
sa(dp85
g2
S'75'
p86
sg4
S'33'
p87
sg6
S'127'
p88
sg8
I1429364491
sa(dp89
g2
S'76'
p90
sg4
S'33'
p91
sg6
S'127'
p92
sg8
I1429364493
sa(dp93
g2
S'77'
p94
sg4
S'33'
p95
sg6
S'127'
p96
sg8
I1429364495
sa(dp97
g2
S'75'
p98
sg4
S'34'
p99
sg6
S'127'
p100
sg8
I1429364497
sa(dp101
g2
S'75'
p102
sg4
S'33'
p103
sg6
S'127'
p104
sg8
I1429364499
sa(dp105
g2
S'77'
p106
sg4
S'33'
p107
sg6
S'127'
p108
sg8
I1429364501
sa(dp109
g2
S'73'
p110
sg4
S'33'
p111
sg6
S'127'
p112
sg8
I1429364503
sa(dp113
g2
S'77'
p114
sg4
S'33'
p115
sg6
S'127'
p116
sg8
I1429364505
sa(dp117
g2
S'74'
p118
sg4
S'33'
p119
sg6
S'127'
p120
sg8
I1429364507
sa(dp121
g2
S'73'
p122
sg4
S'33'
p123
sg6
S'127'
p124
sg8
I1429364509
sa(dp125
g2
S'78'
p126
sg4
S'33'
p127
sg6
S'127'
p128
sg8
I1429364511
sa(dp129
g2
S'74'
p130
sg4
S'33'
p131
sg6
S'127'
p132
sg8
I1429364513
sa(dp133
g2
S'74'
p134
sg4
S'33'
p135
sg6
S'127'
p136
sg8
I1429364515
sa(dp137
g2
S'73'
p138
sg4
S'33'
p139
sg6
S'127'
p140
sg8
I1429364517
sa(dp141
g2
S'73'
p142
sg4
S'33'
p143
sg6
S'127'
p144
sg8
I1429364519
sa(dp145
g2
S'69'
p146
sg4
S'33'
p147
sg6
S'127'
p148
sg8
I1429364521
sa(dp149
g2
S'74'
p150
sg4
S'33'
p151
sg6
S'127'
p152
sg8
I1429364523
sa(dp153
g2
S'74'
p154
sg4
S'33'
p155
sg6
S'127'
p156
sg8
I1429364525
sa(dp157
g2
S'70'
p158
sg4
S'33'
p159
sg6
S'127'
p160
sg8
I1429364527
sa(dp161
g2
S'74'
p162
sg4
S'32'
p163
sg6
S'127'
p164
sg8
I1429364529
sa(dp165
g2
S'74'
p166
sg4
S'33'
p167
sg6
S'127'
p168
sg8
I1429364531
sa(dp169
g2
S'75'
p170
sg4
S'33'
p171
sg6
S'127'
p172
sg8
I1429364533
sa(dp173
g2
S'73'
p174
sg4
S'32'
p175
sg6
S'127'
p176
sg8
I1429364535
sa(dp177
g2
S'75'
p178
sg4
S'33'
p179
sg6
S'127'
p180
sg8
I1429364537
sa(dp181
g2
S'76'
p182
sg4
S'32'
p183
sg6
S'127'
p184
sg8
I1429364539
sa(dp185
g2
S'74'
p186
sg4
S'32'
p187
sg6
S'10'
p188
sg8
I1429364541
sa(dp189
g2
S'71'
p190
sg4
S'32'
p191
sg6
S'10'
p192
sg8
I1429364543
sa(dp193
g2
S'73'
p194
sg4
S'33'
p195
sg6
S'10'
p196
sg8
I1429364545
sa(dp197
g2
S'73'
p198
sg4
S'32'
p199
sg6
S'10'
p200
sg8
I1429364547
sa(dp201
g2
S'72'
p202
sg4
S'32'
p203
sg6
S'10'
p204
sg8
I1429364549
sa(dp205
g2
S'71'
p206
sg4
S'32'
p207
sg6
S'10'
p208
sg8
I1429364551
sa(dp209
g2
S'72'
p210
sg4
S'32'
p211
sg6
S'10'
p212
sg8
I1429364553
sa(dp213
g2
S'72'
p214
sg4
S'32'
p215
sg6
S'10'
p216
sg8
I1429364555
sa(dp217
g2
S'70'
p218
sg4
S'32'
p219
sg6
S'10'
p220
sg8
I1429364557
sa(dp221
g2
S'68'
p222
sg4
S'32'
p223
sg6
S'10'
p224
sg8
I1429364559
sa(dp225
g2
S'70'
p226
sg4
S'32'
p227
sg6
S'10'
p228
sg8
I1429364561
sa(dp229
g2
S'73'
p230
sg4
S'32'
p231
sg6
S'10'
p232
sg8
I1429364563
sa(dp233
g2
S'71'
p234
sg4
S'32'
p235
sg6
S'10'
p236
sg8
I1429364565
sa(dp237
g2
S'70'
p238
sg4
S'32'
p239
sg6
S'10'
p240
sg8
I1429364567
sa(dp241
g2
S'74'
p242
sg4
S'32'
p243
sg6
S'10'
p244
sg8
I1429364569
sa(dp245
g2
S'71'
p246
sg4
S'32'
p247
sg6
S'10'
p248
sg8
I1429364571
sa(dp249
g2
S'71'
p250
sg4
S'32'
p251
sg6
S'10'
p252
sg8
I1429364573
sa(dp253
g2
S'72'
p254
sg4
S'32'
p255
sg6
S'10'
p256
sg8
I1429364575
sa(dp257
g2
S'74'
p258
sg4
S'32'
p259
sg6
S'10'
p260
sg8
I1429364577
sa(dp261
g2
S'69'
p262
sg4
S'32'
p263
sg6
S'10'
p264
sg8
I1429364579
sa(dp265
g2
S'75'
p266
sg4
S'32'
p267
sg6
S'10'
p268
sg8
I1429364581
sa(dp269
g2
S'72'
p270
sg4
S'32'
p271
sg6
S'10'
p272
sg8
I1429364583
sa(dp273
g2
S'70'
p274
sg4
S'32'
p275
sg6
S'10'
p276
sg8
I1429364585
sa(dp277
g2
S'71'
p278
sg4
S'33'
p279
sg6
S'10'
p280
sg8
I1429364587
sa(dp281
g2
S'73'
p282
sg4
S'32'
p283
sg6
S'10'
p284
sg8
I1429364589
sa(dp285
g2
S'70'
p286
sg4
S'32'
p287
sg6
S'10'
p288
sg8
I1429364591
sa(dp289
g2
S'72'
p290
sg4
S'33'
p291
sg6
S'10'
p292
sg8
I1429364593
sa(dp293
g2
S'73'
p294
sg4
S'33'
p295
sg6
S'10'
p296
sg8
I1429364595
sa(dp297
g2
S'75'
p298
sg4
S'33'
p299
sg6
S'10'
p300
sg8
I1429364597
sa(dp301
g2
S'72'
p302
sg4
S'33'
p303
sg6
S'10'
p304
sg8
I1429364599
sa(dp305
g2
S'73'
p306
sg4
S'33'
p307
sg6
S'10'
p308
sg8
I1429364601
sa(dp309
g2
S'76'
p310
sg4
S'33'
p311
sg6
S'10'
p312
sg8
I1429364603
sa(dp313
g2
S'73'
p314
sg4
S'33'
p315
sg6
S'10'
p316
sg8
I1429364605
sa(dp317
g2
S'73'
p318
sg4
S'33'
p319
sg6
S'10'
p320
sg8
I1429364607
sa(dp321
g2
S'76'
p322
sg4
S'34'
p323
sg6
S'10'
p324
sg8
I1429364609
sa(dp325
g2
S'75'
p326
sg4
S'34'
p327
sg6
S'10'
p328
sg8
I1429364611
sa(dp329
g2
S'76'
p330
sg4
S'34'
p331
sg6
S'10'
p332
sg8
I1429364613
sa(dp333
g2
S'77'
p334
sg4
S'34'
p335
sg6
S'10'
p336
sg8
I1429364615
sa(dp337
g2
S'79'
p338
sg4
S'34'
p339
sg6
S'10'
p340
sg8
I1429364617
sa(dp341
g2
S'79'
p342
sg4
S'34'
p343
sg6
S'10'
p344
sg8
I1429364619
sa(dp345
g2
S'79'
p346
sg4
S'34'
p347
sg6
S'10'
p348
sg8
I1429364621
sa(dp349
g2
S'80'
p350
sg4
S'35'
p351
sg6
S'10'
p352
sg8
I1429364623
sa(dp353
g2
S'82'
p354
sg4
S'35'
p355
sg6
S'10'
p356
sg8
I1429364625
sa(dp357
g2
S'77'
p358
sg4
S'35'
p359
sg6
S'10'
p360
sg8
I1429364627
sa(dp361
g2
S'82'
p362
sg4
S'35'
p363
sg6
S'10'
p364
sg8
I1429364629
sa(dp365
g2
S'82'
p366
sg4
S'35'
p367
sg6
S'10'
p368
sg8
I1429364631
sa(dp369
g2
S'83'
p370
sg4
S'36'
p371
sg6
S'10'
p372
sg8
I1429364633
sa(dp373
g2
S'84'
p374
sg4
S'36'
p375
sg6
S'10'
p376
sg8
I1429364635
sa(dp377
g2
S'85'
p378
sg4
S'36'
p379
sg6
S'10'
p380
sg8
I1429364637
sa(dp381
g2
S'87'
p382
sg4
S'36'
p383
sg6
S'10'
p384
sg8
I1429364639
sa(dp385
g2
S'91'
p386
sg4
S'36'
p387
sg6
S'10'
p388
sg8
I1429364641
sa(dp389
g2
S'87'
p390
sg4
S'37'
p391
sg6
S'10'
p392
sg8
I1429364643
sa(dp393
g2
S'90'
p394
sg4
S'37'
p395
sg6
S'10'
p396
sg8
I1429364645
sa(dp397
g2
S'91'
p398
sg4
S'37'
p399
sg6
S'10'
p400
sg8
I1429364647
sa(dp401
g2
S'89'
p402
sg4
S'37'
p403
sg6
S'10'
p404
sg8
I1429364649
sa(dp405
g2
S'92'
p406
sg4
S'38'
p407
sg6
S'10'
p408
sg8
I1429364651
sa(dp409
g2
S'93'
p410
sg4
S'38'
p411
sg6
S'10'
p412
sg8
I1429364653
sa(dp413
g2
S'91'
p414
sg4
S'38'
p415
sg6
S'10'
p416
sg8
I1429364655
sa(dp417
g2
S'97'
p418
sg4
S'38'
p419
sg6
S'10'
p420
sg8
I1429364657
sa(dp421
g2
S'95'
p422
sg4
S'39'
p423
sg6
S'10'
p424
sg8
I1429364659
sa(dp425
g2
S'98'
p426
sg4
S'39'
p427
sg6
S'10'
p428
sg8
I1429364661
sa(dp429
g2
S'99'
p430
sg4
S'39'
p431
sg6
S'10'
p432
sg8
I1429364663
sa(dp433
g2
S'101'
p434
sg4
S'40'
p435
sg6
S'10'
p436
sg8
I1429364665
sa(dp437
g2
S'101'
p438
sg4
S'40'
p439
sg6
S'10'
p440
sg8
I1429364667
sa(dp441
g2
S'106'
p442
sg4
S'40'
p443
sg6
S'10'
p444
sg8
I1429364669
sa(dp445
g2
S'102'
p446
sg4
S'40'
p447
sg6
S'10'
p448
sg8
I1429364671
sa(dp449
g2
S'108'
p450
sg4
S'40'
p451
sg6
S'10'
p452
sg8
I1429364673
sa(dp453
g2
S'108'
p454
sg4
S'40'
p455
sg6
S'10'
p456
sg8
I1429364675
sa(dp457
g2
S'108'
p458
sg4
S'41'
p459
sg6
S'10'
p460
sg8
I1429364677
sa(dp461
g2
S'110'
p462
sg4
S'41'
p463
sg6
S'10'
p464
sg8
I1429364679
sa(dp465
g2
S'111'
p466
sg4
S'41'
p467
sg6
S'10'
p468
sg8
I1429364681
sa(dp469
g2
S'115'
p470
sg4
S'42'
p471
sg6
S'10'
p472
sg8
I1429364683
sa(dp473
g2
S'114'
p474
sg4
S'42'
p475
sg6
S'10'
p476
sg8
I1429364685
sa(dp477
g2
S'114'
p478
sg4
S'42'
p479
sg6
S'10'
p480
sg8
I1429364687
sa(dp481
g2
S'117'
p482
sg4
S'42'
p483
sg6
S'10'
p484
sg8
I1429364689
sa(dp485
g2
S'115'
p486
sg4
S'43'
p487
sg6
S'10'
p488
sg8
I1429364691
sa(dp489
g2
S'119'
p490
sg4
S'43'
p491
sg6
S'10'
p492
sg8
I1429364693
sa(dp493
g2
S'120'
p494
sg4
S'43'
p495
sg6
S'10'
p496
sg8
I1429364695
sa(dp497
g2
S'121'
p498
sg4
S'44'
p499
sg6
S'10'
p500
sg8
I1429364697
sa(dp501
g2
S'124'
p502
sg4
S'44'
p503
sg6
S'10'
p504
sg8
I1429364699
sa(dp505
g2
S'121'
p506
sg4
S'44'
p507
sg6
S'10'
p508
sg8
I1429364701
sa(dp509
g2
S'126'
p510
sg4
S'44'
p511
sg6
S'10'
p512
sg8
I1429364703
sa(dp513
g2
S'127'
p514
sg4
S'45'
p515
sg6
S'10'
p516
sg8
I1429364705
sa(dp517
g2
S'129'
p518
sg4
S'45'
p519
sg6
S'10'
p520
sg8
I1429364707
sa(dp521
g2
S'130'
p522
sg4
S'45'
p523
sg6
S'10'
p524
sg8
I1429364709
sa(dp525
g2
S'135'
p526
sg4
S'45'
p527
sg6
S'10'
p528
sg8
I1429364711
sa(dp529
g2
S'134'
p530
sg4
S'46'
p531
sg6
S'10'
p532
sg8
I1429364713
sa(dp533
g2
S'140'
p534
sg4
S'46'
p535
sg6
S'10'
p536
sg8
I1429364715
sa(dp537
g2
S'136'
p538
sg4
S'46'
p539
sg6
S'10'
p540
sg8
I1429364717
sa(dp541
g2
S'138'
p542
sg4
S'46'
p543
sg6
S'10'
p544
sg8
I1429364719
sa(dp545
g2
S'139'
p546
sg4
S'47'
p547
sg6
S'10'
p548
sg8
I1429364721
sa(dp549
g2
S'142'
p550
sg4
S'47'
p551
sg6
S'10'
p552
sg8
I1429364723
sa(dp553
g2
S'141'
p554
sg4
S'47'
p555
sg6
S'10'
p556
sg8
I1429364725
sa(dp557
g2
S'146'
p558
sg4
S'48'
p559
sg6
S'10'
p560
sg8
I1429364727
sa(dp561
g2
S'147'
p562
sg4
S'48'
p563
sg6
S'10'
p564
sg8
I1429364729
sa(dp565
g2
S'147'
p566
sg4
S'48'
p567
sg6
S'10'
p568
sg8
I1429364731
sa(dp569
g2
S'152'
p570
sg4
S'48'
p571
sg6
S'10'
p572
sg8
I1429364733
sa(dp573
g2
S'149'
p574
sg4
S'48'
p575
sg6
S'10'
p576
sg8
I1429364735
sa(dp577
g2
S'154'
p578
sg4
S'49'
p579
sg6
S'10'
p580
sg8
I1429364737
sa(dp581
g2
S'155'
p582
sg4
S'49'
p583
sg6
S'10'
p584
sg8
I1429364739
sa(dp585
g2
S'154'
p586
sg4
S'49'
p587
sg6
S'10'
p588
sg8
I1429364741
sa(dp589
g2
S'162'
p590
sg4
S'49'
p591
sg6
S'10'
p592
sg8
I1429364743
sa(dp593
g2
S'159'
p594
sg4
S'49'
p595
sg6
S'10'
p596
sg8
I1429364745
sa(dp597
g2
S'160'
p598
sg4
S'50'
p599
sg6
S'10'
p600
sg8
I1429364747
sa(dp601
g2
S'162'
p602
sg4
S'50'
p603
sg6
S'10'
p604
sg8
I1429364749
sa(dp605
g2
S'162'
p606
sg4
S'51'
p607
sg6
S'10'
p608
sg8
I1429364751
sa(dp609
g2
S'166'
p610
sg4
S'51'
p611
sg6
S'10'
p612
sg8
I1429364753
sa(dp613
g2
S'169'
p614
sg4
S'51'
p615
sg6
S'10'
p616
sg8
I1429364755
sa(dp617
g2
S'169'
p618
sg4
S'51'
p619
sg6
S'10'
p620
sg8
I1429364757
sa(dp621
g2
S'172'
p622
sg4
S'51'
p623
sg6
S'10'
p624
sg8
I1429364759
sa(dp625
g2
S'174'
p626
sg4
S'52'
p627
sg6
S'10'
p628
sg8
I1429364761
sa(dp629
g2
S'172'
p630
sg4
S'52'
p631
sg6
S'10'
p632
sg8
I1429364763
sa(dp633
g2
S'174'
p634
sg4
S'53'
p635
sg6
S'10'
p636
sg8
I1429364765
sa(dp637
g2
S'177'
p638
sg4
S'53'
p639
sg6
S'10'
p640
sg8
I1429364767
sa(dp641
g2
S'181'
p642
sg4
S'53'
p643
sg6
S'10'
p644
sg8
I1429364769
sa(dp645
g2
S'181'
p646
sg4
S'53'
p647
sg6
S'10'
p648
sg8
I1429364771
sa(dp649
g2
S'183'
p650
sg4
S'54'
p651
sg6
S'10'
p652
sg8
I1429364773
sa(dp653
g2
S'183'
p654
sg4
S'54'
p655
sg6
S'10'
p656
sg8
I1429364775
sa(dp657
g2
S'183'
p658
sg4
S'54'
p659
sg6
S'10'
p660
sg8
I1429364777
sa(dp661
g2
S'187'
p662
sg4
S'54'
p663
sg6
S'10'
p664
sg8
I1429364779
sa(dp665
g2
S'187'
p666
sg4
S'55'
p667
sg6
S'10'
p668
sg8
I1429364781
sa(dp669
g2
S'195'
p670
sg4
S'54'
p671
sg6
S'10'
p672
sg8
I1429364783
sa(dp673
g2
S'195'
p674
sg4
S'55'
p675
sg6
S'10'
p676
sg8
I1429364785
sa(dp677
g2
S'194'
p678
sg4
S'55'
p679
sg6
S'10'
p680
sg8
I1429364787
sa(dp681
g2
S'197'
p682
sg4
S'55'
p683
sg6
S'10'
p684
sg8
I1429364789
sa(dp685
g2
S'198'
p686
sg4
S'55'
p687
sg6
S'10'
p688
sg8
I1429364791
sa(dp689
g2
S'198'
p690
sg4
S'55'
p691
sg6
S'10'
p692
sg8
I1429364793
sa(dp693
g2
S'201'
p694
sg4
S'56'
p695
sg6
S'10'
p696
sg8
I1429364795
sa(dp697
g2
S'201'
p698
sg4
S'56'
p699
sg6
S'10'
p700
sg8
I1429364797
sa(dp701
g2
S'204'
p702
sg4
S'56'
p703
sg6
S'10'
p704
sg8
I1429364799
sa(dp705
g2
S'206'
p706
sg4
S'56'
p707
sg6
S'10'
p708
sg8
I1429364801
sa(dp709
g2
S'207'
p710
sg4
S'57'
p711
sg6
S'10'
p712
sg8
I1429364803
sa(dp713
g2
S'213'
p714
sg4
S'57'
p715
sg6
S'10'
p716
sg8
I1429364805
sa(dp717
g2
S'210'
p718
sg4
S'57'
p719
sg6
S'10'
p720
sg8
I1429364807
sa(dp721
g2
S'212'
p722
sg4
S'58'
p723
sg6
S'10'
p724
sg8
I1429364809
sa(dp725
g2
S'215'
p726
sg4
S'58'
p727
sg6
S'10'
p728
sg8
I1429364811
sa(dp729
g2
S'218'
p730
sg4
S'58'
p731
sg6
S'10'
p732
sg8
I1429364813
sa(dp733
g2
S'219'
p734
sg4
S'58'
p735
sg6
S'10'
p736
sg8
I1429364815
sa(dp737
g2
S'221'
p738
sg4
S'58'
p739
sg6
S'10'
p740
sg8
I1429364817
sa(dp741
g2
S'219'
p742
sg4
S'59'
p743
sg6
S'10'
p744
sg8
I1429364819
sa(dp745
g2
S'224'
p746
sg4
S'59'
p747
sg6
S'10'
p748
sg8
I1429364821
sa(dp749
g2
S'225'
p750
sg4
S'59'
p751
sg6
S'10'
p752
sg8
I1429364823
sa(dp753
g2
S'224'
p754
sg4
S'59'
p755
sg6
S'10'
p756
sg8
I1429364825
sa(dp757
g2
S'228'
p758
sg4
S'59'
p759
sg6
S'10'
p760
sg8
I1429364827
sa(dp761
g2
S'231'
p762
sg4
S'60'
p763
sg6
S'10'
p764
sg8
I1429364829
sa(dp765
g2
S'232'
p766
sg4
S'60'
p767
sg6
S'10'
p768
sg8
I1429364831
sa(dp769
g2
S'234'
p770
sg4
S'61'
p771
sg6
S'10'
p772
sg8
I1429364833
sa(dp773
g2
S'235'
p774
sg4
S'61'
p775
sg6
S'10'
p776
sg8
I1429364835
sa(dp777
g2
S'236'
p778
sg4
S'61'
p779
sg6
S'10'
p780
sg8
I1429364837
sa(dp781
g2
S'240'
p782
sg4
S'61'
p783
sg6
S'10'
p784
sg8
I1429364839
sa(dp785
g2
S'243'
p786
sg4
S'61'
p787
sg6
S'10'
p788
sg8
I1429364841
sa(dp789
g2
S'241'
p790
sg4
S'62'
p791
sg6
S'10'
p792
sg8
I1429364843
sa(dp793
g2
S'243'
p794
sg4
S'61'
p795
sg6
S'10'
p796
sg8
I1429364845
sa(dp797
g2
S'243'
p798
sg4
S'62'
p799
sg6
S'10'
p800
sg8
I1429364847
sa(dp801
g2
S'246'
p802
sg4
S'62'
p803
sg6
S'10'
p804
sg8
I1429364849
sa(dp805
g2
S'248'
p806
sg4
S'63'
p807
sg6
S'10'
p808
sg8
I1429364851
sa(dp809
g2
S'250'
p810
sg4
S'62'
p811
sg6
S'10'
p812
sg8
I1429364853
sa(dp813
g2
S'249'
p814
sg4
S'62'
p815
sg6
S'10'
p816
sg8
I1429364855
sa(dp817
g2
S'251'
p818
sg4
S'63'
p819
sg6
S'10'
p820
sg8
I1429364857
sa(dp821
g2
S'251'
p822
sg4
S'63'
p823
sg6
S'10'
p824
sg8
I1429364859
sa(dp825
g2
S'253'
p826
sg4
S'63'
p827
sg6
S'10'
p828
sg8
I1429364861
sa(dp829
g2
S'255'
p830
sg4
S'64'
p831
sg6
S'10'
p832
sg8
I1429364863
sa(dp833
g2
S'255'
p834
sg4
S'64'
p835
sg6
S'10'
p836
sg8
I1429364865
sa(dp837
g2
S'257'
p838
sg4
S'64'
p839
sg6
S'10'
p840
sg8
I1429364867
sa(dp841
g2
S'259'
p842
sg4
S'64'
p843
sg6
S'10'
p844
sg8
I1429364869
sa(dp845
g2
S'261'
p846
sg4
S'64'
p847
sg6
S'10'
p848
sg8
I1429364871
sa(dp849
g2
S'264'
p850
sg4
S'65'
p851
sg6
S'10'
p852
sg8
I1429364873
sa(dp853
g2
S'262'
p854
sg4
S'65'
p855
sg6
S'10'
p856
sg8
I1429364875
sa(dp857
g2
S'264'
p858
sg4
S'65'
p859
sg6
S'10'
p860
sg8
I1429364877
sa(dp861
g2
S'266'
p862
sg4
S'65'
p863
sg6
S'10'
p864
sg8
I1429364879
sa(dp865
g2
S'265'
p866
sg4
S'65'
p867
sg6
S'10'
p868
sg8
I1429364881
sa(dp869
g2
S'265'
p870
sg4
S'65'
p871
sg6
S'10'
p872
sg8
I1429364883
sa(dp873
g2
S'271'
p874
sg4
S'65'
p875
sg6
S'10'
p876
sg8
I1429364885
sa(dp877
g2
S'270'
p878
sg4
S'65'
p879
sg6
S'10'
p880
sg8
I1429364887
sa(dp881
g2
S'273'
p882
sg4
S'66'
p883
sg6
S'10'
p884
sg8
I1429364889
sa(dp885
g2
S'273'
p886
sg4
S'66'
p887
sg6
S'10'
p888
sg8
I1429364891
sa(dp889
g2
S'275'
p890
sg4
S'66'
p891
sg6
S'10'
p892
sg8
I1429364893
sa(dp893
g2
S'277'
p894
sg4
S'67'
p895
sg6
S'10'
p896
sg8
I1429364895
sa(dp897
g2
S'278'
p898
sg4
S'67'
p899
sg6
S'10'
p900
sg8
I1429364897
sa(dp901
g2
S'280'
p902
sg4
S'67'
p903
sg6
S'10'
p904
sg8
I1429364899
sa(dp905
g2
S'281'
p906
sg4
S'67'
p907
sg6
S'10'
p908
sg8
I1429364901
sa(dp909
g2
S'283'
p910
sg4
S'67'
p911
sg6
S'10'
p912
sg8
I1429364903
sa(dp913
g2
S'284'
p914
sg4
S'67'
p915
sg6
S'10'
p916
sg8
I1429364905
sa(dp917
g2
S'287'
p918
sg4
S'67'
p919
sg6
S'10'
p920
sg8
I1429364907
sa(dp921
g2
S'289'
p922
sg4
S'67'
p923
sg6
S'10'
p924
sg8
I1429364909
sa(dp925
g2
S'291'
p926
sg4
S'67'
p927
sg6
S'10'
p928
sg8
I1429364911
sa(dp929
g2
S'294'
p930
sg4
S'68'
p931
sg6
S'10'
p932
sg8
I1429364913
sa(dp933
g2
S'296'
p934
sg4
S'68'
p935
sg6
S'10'
p936
sg8
I1429364915
sa(dp937
g2
S'297'
p938
sg4
S'68'
p939
sg6
S'10'
p940
sg8
I1429364917
sa(dp941
g2
S'297'
p942
sg4
S'69'
p943
sg6
S'10'
p944
sg8
I1429364919
sa(dp945
g2
S'300'
p946
sg4
S'68'
p947
sg6
S'10'
p948
sg8
I1429364921
sa(dp949
g2
S'301'
p950
sg4
S'69'
p951
sg6
S'10'
p952
sg8
I1429364923
sa(dp953
g2
S'303'
p954
sg4
S'69'
p955
sg6
S'10'
p956
sg8
I1429364925
sa(dp957
g2
S'303'
p958
sg4
S'69'
p959
sg6
S'10'
p960
sg8
I1429364927
sa(dp961
g2
S'305'
p962
sg4
S'69'
p963
sg6
S'10'
p964
sg8
I1429364929
sa(dp965
g2
S'307'
p966
sg4
S'70'
p967
sg6
S'10'
p968
sg8
I1429364931
sa(dp969
g2
S'306'
p970
sg4
S'69'
p971
sg6
S'10'
p972
sg8
I1429364933
sa(dp973
g2
S'302'
p974
sg4
S'70'
p975
sg6
S'10'
p976
sg8
I1429364935
sa(dp977
g2
S'309'
p978
sg4
S'70'
p979
sg6
S'10'
p980
sg8
I1429364937
sa(dp981
g2
S'309'
p982
sg4
S'70'
p983
sg6
S'10'
p984
sg8
I1429364939
sa(dp985
g2
S'311'
p986
sg4
S'70'
p987
sg6
S'10'
p988
sg8
I1429364941
sa(dp989
g2
S'311'
p990
sg4
S'70'
p991
sg6
S'10'
p992
sg8
I1429364943
sa(dp993
g2
S'313'
p994
sg4
S'70'
p995
sg6
S'10'
p996
sg8
I1429364945
sa(dp997
g2
S'315'
p998
sg4
S'70'
p999
sg6
S'10'
p1000
sg8
I1429364947
sa(dp1001
g2
S'314'
p1002
sg4
S'71'
p1003
sg6
S'10'
p1004
sg8
I1429364949
sa(dp1005
g2
S'317'
p1006
sg4
S'71'
p1007
sg6
S'10'
p1008
sg8
I1429364951
sa(dp1009
g2
S'319'
p1010
sg4
S'71'
p1011
sg6
S'10'
p1012
sg8
I1429364953
sa(dp1013
g2
S'320'
p1014
sg4
S'71'
p1015
sg6
S'10'
p1016
sg8
I1429364955
sa(dp1017
g2
S'323'
p1018
sg4
S'71'
p1019
sg6
S'10'
p1020
sg8
I1429364957
sa(dp1021
g2
S'324'
p1022
sg4
S'71'
p1023
sg6
S'10'
p1024
sg8
I1429364959
sa(dp1025
g2
S'325'
p1026
sg4
S'71'
p1027
sg6
S'10'
p1028
sg8
I1429364961
sa(dp1029
g2
S'327'
p1030
sg4
S'72'
p1031
sg6
S'10'
p1032
sg8
I1429364963
sa(dp1033
g2
S'329'
p1034
sg4
S'72'
p1035
sg6
S'10'
p1036
sg8
I1429364965
sa(dp1037
g2
S'329'
p1038
sg4
S'72'
p1039
sg6
S'10'
p1040
sg8
I1429364967
sa(dp1041
g2
S'331'
p1042
sg4
S'73'
p1043
sg6
S'10'
p1044
sg8
I1429364969
sa(dp1045
g2
S'332'
p1046
sg4
S'73'
p1047
sg6
S'10'
p1048
sg8
I1429364971
sa(dp1049
g2
S'333'
p1050
sg4
S'73'
p1051
sg6
S'10'
p1052
sg8
I1429364973
sa(dp1053
g2
S'334'
p1054
sg4
S'72'
p1055
sg6
S'10'
p1056
sg8
I1429364975
sa(dp1057
g2
S'337'
p1058
sg4
S'73'
p1059
sg6
S'10'
p1060
sg8
I1429364977
sa(dp1061
g2
S'338'
p1062
sg4
S'73'
p1063
sg6
S'10'
p1064
sg8
I1429364979
sa(dp1065
g2
S'338'
p1066
sg4
S'73'
p1067
sg6
S'10'
p1068
sg8
I1429364981
sa(dp1069
g2
S'339'
p1070
sg4
S'73'
p1071
sg6
S'10'
p1072
sg8
I1429364983
sa(dp1073
g2
S'339'
p1074
sg4
S'73'
p1075
sg6
S'10'
p1076
sg8
I1429364985
sa(dp1077
g2
S'341'
p1078
sg4
S'73'
p1079
sg6
S'10'
p1080
sg8
I1429364987
sa(dp1081
g2
S'339'
p1082
sg4
S'73'
p1083
sg6
S'10'
p1084
sg8
I1429364989
sa(dp1085
g2
S'340'
p1086
sg4
S'74'
p1087
sg6
S'10'
p1088
sg8
I1429364991
sa(dp1089
g2
S'343'
p1090
sg4
S'74'
p1091
sg6
S'10'
p1092
sg8
I1429364993
sa(dp1093
g2
S'341'
p1094
sg4
S'74'
p1095
sg6
S'10'
p1096
sg8
I1429364995
sa(dp1097
g2
S'342'
p1098
sg4
S'74'
p1099
sg6
S'10'
p1100
sg8
I1429364997
sa(dp1101
g2
S'344'
p1102
sg4
S'74'
p1103
sg6
S'10'
p1104
sg8
I1429364999
sa(dp1105
g2
S'345'
p1106
sg4
S'74'
p1107
sg6
S'10'
p1108
sg8
I1429365001
sa(dp1109
g2
S'347'
p1110
sg4
S'74'
p1111
sg6
S'10'
p1112
sg8
I1429365003
sa(dp1113
g2
S'346'
p1114
sg4
S'75'
p1115
sg6
S'10'
p1116
sg8
I1429365005
sa(dp1117
g2
S'346'
p1118
sg4
S'74'
p1119
sg6
S'10'
p1120
sg8
I1429365007
sa(dp1121
g2
S'348'
p1122
sg4
S'75'
p1123
sg6
S'10'
p1124
sg8
I1429365009
sa(dp1125
g2
S'347'
p1126
sg4
S'75'
p1127
sg6
S'10'
p1128
sg8
I1429365011
sa(dp1129
g2
S'348'
p1130
sg4
S'75'
p1131
sg6
S'10'
p1132
sg8
I1429365013
sa(dp1133
g2
S'349'
p1134
sg4
S'75'
p1135
sg6
S'10'
p1136
sg8
I1429365015
sa(dp1137
g2
S'349'
p1138
sg4
S'75'
p1139
sg6
S'10'
p1140
sg8
I1429365017
sa(dp1141
g2
S'352'
p1142
sg4
S'76'
p1143
sg6
S'10'
p1144
sg8
I1429365019
sa(dp1145
g2
S'351'
p1146
sg4
S'76'
p1147
sg6
S'10'
p1148
sg8
I1429365021
sa(dp1149
g2
S'352'
p1150
sg4
S'75'
p1151
sg6
S'10'
p1152
sg8
I1429365023
sa(dp1153
g2
S'352'
p1154
sg4
S'76'
p1155
sg6
S'10'
p1156
sg8
I1429365025
sa(dp1157
g2
S'351'
p1158
sg4
S'76'
p1159
sg6
S'10'
p1160
sg8
I1429365027
sa(dp1161
g2
S'353'
p1162
sg4
S'76'
p1163
sg6
S'10'
p1164
sg8
I1429365029
sa(dp1165
g2
S'352'
p1166
sg4
S'76'
p1167
sg6
S'10'
p1168
sg8
I1429365031
sa(dp1169
g2
S'349'
p1170
sg4
S'76'
p1171
sg6
S'10'
p1172
sg8
I1429365033
sa(dp1173
g2
S'351'
p1174
sg4
S'76'
p1175
sg6
S'10'
p1176
sg8
I1429365035
sa(dp1177
g2
S'354'
p1178
sg4
S'76'
p1179
sg6
S'10'
p1180
sg8
I1429365037
sa(dp1181
g2
S'355'
p1182
sg4
S'76'
p1183
sg6
S'10'
p1184
sg8
I1429365039
sa(dp1185
g2
S'355'
p1186
sg4
S'76'
p1187
sg6
S'10'
p1188
sg8
I1429365041
sa(dp1189
g2
S'353'
p1190
sg4
S'76'
p1191
sg6
S'10'
p1192
sg8
I1429365043
sa(dp1193
g2
S'356'
p1194
sg4
S'76'
p1195
sg6
S'10'
p1196
sg8
I1429365045
sa(dp1197
g2
S'354'
p1198
sg4
S'76'
p1199
sg6
S'10'
p1200
sg8
I1429365047
sa(dp1201
g2
S'357'
p1202
sg4
S'77'
p1203
sg6
S'10'
p1204
sg8
I1429365049
sa(dp1205
g2
S'358'
p1206
sg4
S'77'
p1207
sg6
S'10'
p1208
sg8
I1429365051
sa(dp1209
g2
S'360'
p1210
sg4
S'77'
p1211
sg6
S'10'
p1212
sg8
I1429365053
sa(dp1213
g2
S'361'
p1214
sg4
S'77'
p1215
sg6
S'10'
p1216
sg8
I1429365055
sa(dp1217
g2
S'360'
p1218
sg4
S'77'
p1219
sg6
S'10'
p1220
sg8
I1429365057
sa(dp1221
g2
S'361'
p1222
sg4
S'77'
p1223
sg6
S'10'
p1224
sg8
I1429365059
sa(dp1225
g2
S'363'
p1226
sg4
S'77'
p1227
sg6
S'10'
p1228
sg8
I1429365061
sa(dp1229
g2
S'363'
p1230
sg4
S'77'
p1231
sg6
S'10'
p1232
sg8
I1429365063
sa(dp1233
g2
S'363'
p1234
sg4
S'77'
p1235
sg6
S'10'
p1236
sg8
I1429365065
sa(dp1237
g2
S'366'
p1238
sg4
S'77'
p1239
sg6
S'10'
p1240
sg8
I1429365067
sa(dp1241
g2
S'368'
p1242
sg4
S'77'
p1243
sg6
S'10'
p1244
sg8
I1429365069
sa(dp1245
g2
S'368'
p1246
sg4
S'77'
p1247
sg6
S'10'
p1248
sg8
I1429365071
sa(dp1249
g2
S'370'
p1250
sg4
S'78'
p1251
sg6
S'10'
p1252
sg8
I1429365073
sa(dp1253
g2
S'374'
p1254
sg4
S'78'
p1255
sg6
S'10'
p1256
sg8
I1429365075
sa(dp1257
g2
S'374'
p1258
sg4
S'78'
p1259
sg6
S'10'
p1260
sg8
I1429365077
sa(dp1261
g2
S'376'
p1262
sg4
S'78'
p1263
sg6
S'10'
p1264
sg8
I1429365079
sa(dp1265
g2
S'379'
p1266
sg4
S'78'
p1267
sg6
S'10'
p1268
sg8
I1429365081
sa(dp1269
g2
S'377'
p1270
sg4
S'78'
p1271
sg6
S'10'
p1272
sg8
I1429365083
sa(dp1273
g2
S'380'
p1274
sg4
S'78'
p1275
sg6
S'10'
p1276
sg8
I1429365085
sa(dp1277
g2
S'382'
p1278
sg4
S'78'
p1279
sg6
S'10'
p1280
sg8
I1429365087
sa(dp1281
g2
S'382'
p1282
sg4
S'78'
p1283
sg6
S'10'
p1284
sg8
I1429365089
sa(dp1285
g2
S'386'
p1286
sg4
S'78'
p1287
sg6
S'10'
p1288
sg8
I1429365091
sa(dp1289
g2
S'389'
p1290
sg4
S'78'
p1291
sg6
S'10'
p1292
sg8
I1429365093
sa(dp1293
g2
S'390'
p1294
sg4
S'78'
p1295
sg6
S'10'
p1296
sg8
I1429365095
sa(dp1297
g2
S'389'
p1298
sg4
S'79'
p1299
sg6
S'10'
p1300
sg8
I1429365097
sa(dp1301
g2
S'391'
p1302
sg4
S'79'
p1303
sg6
S'10'
p1304
sg8
I1429365099
sa(dp1305
g2
S'391'
p1306
sg4
S'79'
p1307
sg6
S'127'
p1308
sg8
I1429365101
sa(dp1309
g2
S'392'
p1310
sg4
S'79'
p1311
sg6
S'127'
p1312
sg8
I1429365103
sa(dp1313
g2
S'391'
p1314
sg4
S'79'
p1315
sg6
S'127'
p1316
sg8
I1429365105
sa(dp1317
g2
S'393'
p1318
sg4
S'79'
p1319
sg6
S'127'
p1320
sg8
I1429365107
sa(dp1321
g2
S'396'
p1322
sg4
S'79'
p1323
sg6
S'127'
p1324
sg8
I1429365109
sa(dp1325
g2
S'396'
p1326
sg4
S'79'
p1327
sg6
S'127'
p1328
sg8
I1429365111
sa(dp1329
g2
S'396'
p1330
sg4
S'79'
p1331
sg6
S'127'
p1332
sg8
I1429365113
sa(dp1333
g2
S'397'
p1334
sg4
S'79'
p1335
sg6
S'127'
p1336
sg8
I1429365115
sa(dp1337
g2
S'398'
p1338
sg4
S'79'
p1339
sg6
S'127'
p1340
sg8
I1429365117
sa(dp1341
g2
S'396'
p1342
sg4
S'79'
p1343
sg6
S'127'
p1344
sg8
I1429365119
sa(dp1345
g2
S'398'
p1346
sg4
S'80'
p1347
sg6
S'127'
p1348
sg8
I1429365121
sa(dp1349
g2
S'401'
p1350
sg4
S'80'
p1351
sg6
S'127'
p1352
sg8
I1429365123
sa(dp1353
g2
S'406'
p1354
sg4
S'80'
p1355
sg6
S'127'
p1356
sg8
I1429365125
sa(dp1357
g2
S'402'
p1358
sg4
S'80'
p1359
sg6
S'127'
p1360
sg8
I1429365127
sa(dp1361
g2
S'398'
p1362
sg4
S'80'
p1363
sg6
S'127'
p1364
sg8
I1429365129
sa(dp1365
g2
S'402'
p1366
sg4
S'80'
p1367
sg6
S'127'
p1368
sg8
I1429365131
sa(dp1369
g2
S'402'
p1370
sg4
S'80'
p1371
sg6
S'127'
p1372
sg8
I1429365133
sa(dp1373
g2
S'402'
p1374
sg4
S'80'
p1375
sg6
S'127'
p1376
sg8
I1429365135
sa(dp1377
g2
S'403'
p1378
sg4
S'80'
p1379
sg6
S'127'
p1380
sg8
I1429365137
sa(dp1381
g2
S'401'
p1382
sg4
S'80'
p1383
sg6
S'127'
p1384
sg8
I1429365139
sa(dp1385
g2
S'409'
p1386
sg4
S'80'
p1387
sg6
S'127'
p1388
sg8
I1429365141
sa(dp1389
g2
S'401'
p1390
sg4
S'80'
p1391
sg6
S'127'
p1392
sg8
I1429365143
sa(dp1393
g2
S'404'
p1394
sg4
S'80'
p1395
sg6
S'127'
p1396
sg8
I1429365145
sa(dp1397
g2
S'404'
p1398
sg4
S'80'
p1399
sg6
S'127'
p1400
sg8
I1429365147
sa(dp1401
g2
S'404'
p1402
sg4
S'80'
p1403
sg6
S'127'
p1404
sg8
I1429365149
sa(dp1405
g2
S'401'
p1406
sg4
S'81'
p1407
sg6
S'127'
p1408
sg8
I1429365151
sa(dp1409
g2
S'405'
p1410
sg4
S'80'
p1411
sg6
S'127'
p1412
sg8
I1429365153
sa(dp1413
g2
S'400'
p1414
sg4
S'81'
p1415
sg6
S'127'
p1416
sg8
I1429365155
sa(dp1417
g2
S'400'
p1418
sg4
S'80'
p1419
sg6
S'127'
p1420
sg8
I1429365157
sa(dp1421
g2
S'402'
p1422
sg4
S'80'
p1423
sg6
S'127'
p1424
sg8
I1429365159
sa(dp1425
g2
S'400'
p1426
sg4
S'80'
p1427
sg6
S'127'
p1428
sg8
I1429365161
sa(dp1429
g2
S'397'
p1430
sg4
S'80'
p1431
sg6
S'127'
p1432
sg8
I1429365163
sa(dp1433
g2
S'400'
p1434
sg4
S'80'
p1435
sg6
S'127'
p1436
sg8
I1429365165
sa(dp1437
g2
S'395'
p1438
sg4
S'80'
p1439
sg6
S'127'
p1440
sg8
I1429365167
sa(dp1441
g2
S'401'
p1442
sg4
S'80'
p1443
sg6
S'127'
p1444
sg8
I1429365169
sa(dp1445
g2
S'396'
p1446
sg4
S'80'
p1447
sg6
S'127'
p1448
sg8
I1429365171
sa(dp1449
g2
S'396'
p1450
sg4
S'80'
p1451
sg6
S'127'
p1452
sg8
I1429365173
sa(dp1453
g2
S'397'
p1454
sg4
S'80'
p1455
sg6
S'127'
p1456
sg8
I1429365175
sa(dp1457
g2
S'394'
p1458
sg4
S'80'
p1459
sg6
S'127'
p1460
sg8
I1429365177
sa(dp1461
g2
S'391'
p1462
sg4
S'79'
p1463
sg6
S'127'
p1464
sg8
I1429365179
sa(dp1465
g2
S'395'
p1466
sg4
S'79'
p1467
sg6
S'127'
p1468
sg8
I1429365181
sa(dp1469
g2
S'390'
p1470
sg4
S'79'
p1471
sg6
S'127'
p1472
sg8
I1429365183
sa(dp1473
g2
S'389'
p1474
sg4
S'79'
p1475
sg6
S'127'
p1476
sg8
I1429365185
sa(dp1477
g2
S'390'
p1478
sg4
S'79'
p1479
sg6
S'127'
p1480
sg8
I1429365187
sa(dp1481
g2
S'385'
p1482
sg4
S'79'
p1483
sg6
S'127'
p1484
sg8
I1429365189
sa(dp1485
g2
S'388'
p1486
sg4
S'79'
p1487
sg6
S'127'
p1488
sg8
I1429365191
sa(dp1489
g2
S'380'
p1490
sg4
S'79'
p1491
sg6
S'127'
p1492
sg8
I1429365193
sa(dp1493
g2
S'384'
p1494
sg4
S'79'
p1495
sg6
S'127'
p1496
sg8
I1429365195
sa(dp1497
g2
S'382'
p1498
sg4
S'79'
p1499
sg6
S'127'
p1500
sg8
I1429365197
sa(dp1501
g2
S'381'
p1502
sg4
S'79'
p1503
sg6
S'127'
p1504
sg8
I1429365199
sa(dp1505
g2
S'378'
p1506
sg4
S'78'
p1507
sg6
S'127'
p1508
sg8
I1429365201
sa(dp1509
g2
S'377'
p1510
sg4
S'78'
p1511
sg6
S'127'
p1512
sg8
I1429365203
sa(dp1513
g2
S'378'
p1514
sg4
S'78'
p1515
sg6
S'127'
p1516
sg8
I1429365205
sa(dp1517
g2
S'377'
p1518
sg4
S'78'
p1519
sg6
S'127'
p1520
sg8
I1429365207
sa(dp1521
g2
S'375'
p1522
sg4
S'78'
p1523
sg6
S'127'
p1524
sg8
I1429365209
sa(dp1525
g2
S'372'
p1526
sg4
S'78'
p1527
sg6
S'127'
p1528
sg8
I1429365211
sa(dp1529
g2
S'372'
p1530
sg4
S'78'
p1531
sg6
S'127'
p1532
sg8
I1429365213
sa(dp1533
g2
S'372'
p1534
sg4
S'77'
p1535
sg6
S'127'
p1536
sg8
I1429365215
sa(dp1537
g2
S'371'
p1538
sg4
S'78'
p1539
sg6
S'127'
p1540
sg8
I1429365217
sa(dp1541
g2
S'368'
p1542
sg4
S'77'
p1543
sg6
S'127'
p1544
sg8
I1429365219
sa(dp1545
g2
S'365'
p1546
sg4
S'77'
p1547
sg6
S'127'
p1548
sg8
I1429365221
sa(dp1549
g2
S'363'
p1550
sg4
S'77'
p1551
sg6
S'127'
p1552
sg8
I1429365223
sa(dp1553
g2
S'366'
p1554
sg4
S'76'
p1555
sg6
S'127'
p1556
sg8
I1429365225
sa(dp1557
g2
S'362'
p1558
sg4
S'76'
p1559
sg6
S'127'
p1560
sg8
I1429365227
sa(dp1561
g2
S'361'
p1562
sg4
S'76'
p1563
sg6
S'127'
p1564
sg8
I1429365229
sa(dp1565
g2
S'361'
p1566
sg4
S'76'
p1567
sg6
S'127'
p1568
sg8
I1429365231
sa(dp1569
g2
S'363'
p1570
sg4
S'76'
p1571
sg6
S'127'
p1572
sg8
I1429365233
sa(dp1573
g2
S'355'
p1574
sg4
S'76'
p1575
sg6
S'127'
p1576
sg8
I1429365235
sa(dp1577
g2
S'354'
p1578
sg4
S'76'
p1579
sg6
S'127'
p1580
sg8
I1429365237
sa(dp1581
g2
S'355'
p1582
sg4
S'75'
p1583
sg6
S'127'
p1584
sg8
I1429365239
sa(dp1585
g2
S'350'
p1586
sg4
S'76'
p1587
sg6
S'127'
p1588
sg8
I1429365241
sa(dp1589
g2
S'353'
p1590
sg4
S'75'
p1591
sg6
S'127'
p1592
sg8
I1429365243
sa(dp1593
g2
S'349'
p1594
sg4
S'75'
p1595
sg6
S'127'
p1596
sg8
I1429365245
sa(dp1597
g2
S'346'
p1598
sg4
S'75'
p1599
sg6
S'127'
p1600
sg8
I1429365247
sa(dp1601
g2
S'344'
p1602
sg4
S'74'
p1603
sg6
S'127'
p1604
sg8
I1429365249
sa(dp1605
g2
S'341'
p1606
sg4
S'74'
p1607
sg6
S'127'
p1608
sg8
I1429365251
sa(dp1609
g2
S'344'
p1610
sg4
S'74'
p1611
sg6
S'127'
p1612
sg8
I1429365253
sa(dp1613
g2
S'341'
p1614
sg4
S'74'
p1615
sg6
S'127'
p1616
sg8
I1429365255
sa(dp1617
g2
S'339'
p1618
sg4
S'74'
p1619
sg6
S'127'
p1620
sg8
I1429365257
sa(dp1621
g2
S'337'
p1622
sg4
S'73'
p1623
sg6
S'127'
p1624
sg8
I1429365259
sa(dp1625
g2
S'335'
p1626
sg4
S'73'
p1627
sg6
S'127'
p1628
sg8
I1429365261
sa(dp1629
g2
S'334'
p1630
sg4
S'73'
p1631
sg6
S'127'
p1632
sg8
I1429365263
sa(dp1633
g2
S'332'
p1634
sg4
S'73'
p1635
sg6
S'127'
p1636
sg8
I1429365265
sa(dp1637
g2
S'331'
p1638
sg4
S'73'
p1639
sg6
S'127'
p1640
sg8
I1429365267
sa(dp1641
g2
S'327'
p1642
sg4
S'72'
p1643
sg6
S'127'
p1644
sg8
I1429365269
sa(dp1645
g2
S'326'
p1646
sg4
S'72'
p1647
sg6
S'127'
p1648
sg8
I1429365271
sa(dp1649
g2
S'325'
p1650
sg4
S'72'
p1651
sg6
S'127'
p1652
sg8
I1429365273
sa(dp1653
g2
S'321'
p1654
sg4
S'72'
p1655
sg6
S'127'
p1656
sg8
I1429365275
sa(dp1657
g2
S'320'
p1658
sg4
S'72'
p1659
sg6
S'127'
p1660
sg8
I1429365277
sa(dp1661
g2
S'319'
p1662
sg4
S'71'
p1663
sg6
S'127'
p1664
sg8
I1429365279
sa(dp1665
g2
S'320'
p1666
sg4
S'71'
p1667
sg6
S'127'
p1668
sg8
I1429365281
sa(dp1669
g2
S'316'
p1670
sg4
S'71'
p1671
sg6
S'127'
p1672
sg8
I1429365283
sa(dp1673
g2
S'314'
p1674
sg4
S'71'
p1675
sg6
S'127'
p1676
sg8
I1429365285
sa(dp1677
g2
S'313'
p1678
sg4
S'71'
p1679
sg6
S'127'
p1680
sg8
I1429365287
sa(dp1681
g2
S'310'
p1682
sg4
S'70'
p1683
sg6
S'127'
p1684
sg8
I1429365289
sa(dp1685
g2
S'313'
p1686
sg4
S'71'
p1687
sg6
S'127'
p1688
sg8
I1429365291
sa(dp1689
g2
S'306'
p1690
sg4
S'70'
p1691
sg6
S'127'
p1692
sg8
I1429365293
sa(dp1693
g2
S'304'
p1694
sg4
S'70'
p1695
sg6
S'127'
p1696
sg8
I1429365295
sa(dp1697
g2
S'301'
p1698
sg4
S'70'
p1699
sg6
S'127'
p1700
sg8
I1429365297
sa(dp1701
g2
S'299'
p1702
sg4
S'70'
p1703
sg6
S'127'
p1704
sg8
I1429365299
sa(dp1705
g2
S'300'
p1706
sg4
S'70'
p1707
sg6
S'127'
p1708
sg8
I1429365301
sa(dp1709
g2
S'298'
p1710
sg4
S'69'
p1711
sg6
S'127'
p1712
sg8
I1429365303
sa(dp1713
g2
S'297'
p1714
sg4
S'69'
p1715
sg6
S'127'
p1716
sg8
I1429365305
sa(dp1717
g2
S'293'
p1718
sg4
S'69'
p1719
sg6
S'127'
p1720
sg8
I1429365307
sa(dp1721
g2
S'292'
p1722
sg4
S'69'
p1723
sg6
S'127'
p1724
sg8
I1429365309
sa(dp1725
g2
S'290'
p1726
sg4
S'68'
p1727
sg6
S'127'
p1728
sg8
I1429365311
sa(dp1729
g2
S'288'
p1730
sg4
S'68'
p1731
sg6
S'127'
p1732
sg8
I1429365313
sa(dp1733
g2
S'285'
p1734
sg4
S'68'
p1735
sg6
S'127'
p1736
sg8
I1429365315
sa(dp1737
g2
S'287'
p1738
sg4
S'67'
p1739
sg6
S'127'
p1740
sg8
I1429365317
sa(dp1741
g2
S'282'
p1742
sg4
S'67'
p1743
sg6
S'127'
p1744
sg8
I1429365319
sa(dp1745
g2
S'281'
p1746
sg4
S'68'
p1747
sg6
S'127'
p1748
sg8
I1429365321
sa(dp1749
g2
S'281'
p1750
sg4
S'67'
p1751
sg6
S'127'
p1752
sg8
I1429365323
sa(dp1753
g2
S'281'
p1754
sg4
S'67'
p1755
sg6
S'127'
p1756
sg8
I1429365325
sa(dp1757
g2
S'272'
p1758
sg4
S'67'
p1759
sg6
S'127'
p1760
sg8
I1429365327
sa(dp1761
g2
S'274'
p1762
sg4
S'66'
p1763
sg6
S'127'
p1764
sg8
I1429365329
sa(dp1765
g2
S'272'
p1766
sg4
S'66'
p1767
sg6
S'127'
p1768
sg8
I1429365331
sa(dp1769
g2
S'272'
p1770
sg4
S'66'
p1771
sg6
S'127'
p1772
sg8
I1429365333
sa(dp1773
g2
S'268'
p1774
sg4
S'66'
p1775
sg6
S'127'
p1776
sg8
I1429365335
sa(dp1777
g2
S'270'
p1778
sg4
S'66'
p1779
sg6
S'127'
p1780
sg8
I1429365337
sa(dp1781
g2
S'267'
p1782
sg4
S'66'
p1783
sg6
S'127'
p1784
sg8
I1429365339
sa(dp1785
g2
S'263'
p1786
sg4
S'66'
p1787
sg6
S'127'
p1788
sg8
I1429365341
sa(dp1789
g2
S'263'
p1790
sg4
S'65'
p1791
sg6
S'127'
p1792
sg8
I1429365343
sa(dp1793
g2
S'261'
p1794
sg4
S'65'
p1795
sg6
S'127'
p1796
sg8
I1429365345
sa(dp1797
g2
S'258'
p1798
sg4
S'65'
p1799
sg6
S'127'
p1800
sg8
I1429365347
sa(dp1801
g2
S'260'
p1802
sg4
S'65'
p1803
sg6
S'127'
p1804
sg8
I1429365349
sa(dp1805
g2
S'256'
p1806
sg4
S'64'
p1807
sg6
S'127'
p1808
sg8
I1429365351
sa(dp1809
g2
S'255'
p1810
sg4
S'64'
p1811
sg6
S'127'
p1812
sg8
I1429365353
sa(dp1813
g2
S'255'
p1814
sg4
S'64'
p1815
sg6
S'127'
p1816
sg8
I1429365355
sa(dp1817
g2
S'251'
p1818
sg4
S'64'
p1819
sg6
S'127'
p1820
sg8
I1429365357
sa(dp1821
g2
S'250'
p1822
sg4
S'64'
p1823
sg6
S'127'
p1824
sg8
I1429365359
sa(dp1825
g2
S'251'
p1826
sg4
S'63'
p1827
sg6
S'127'
p1828
sg8
I1429365361
sa(dp1829
g2
S'247'
p1830
sg4
S'64'
p1831
sg6
S'127'
p1832
sg8
I1429365363
sa(dp1833
g2
S'247'
p1834
sg4
S'64'
p1835
sg6
S'127'
p1836
sg8
I1429365365
sa(dp1837
g2
S'244'
p1838
sg4
S'63'
p1839
sg6
S'127'
p1840
sg8
I1429365367
sa(dp1841
g2
S'245'
p1842
sg4
S'63'
p1843
sg6
S'127'
p1844
sg8
I1429365369
sa(dp1845
g2
S'241'
p1846
sg4
S'63'
p1847
sg6
S'127'
p1848
sg8
I1429365371
sa(dp1849
g2
S'241'
p1850
sg4
S'62'
p1851
sg6
S'127'
p1852
sg8
I1429365373
sa(dp1853
g2
S'239'
p1854
sg4
S'63'
p1855
sg6
S'127'
p1856
sg8
I1429365375
sa(dp1857
g2
S'237'
p1858
sg4
S'62'
p1859
sg6
S'127'
p1860
sg8
I1429365377
sa(dp1861
g2
S'234'
p1862
sg4
S'62'
p1863
sg6
S'127'
p1864
sg8
I1429365379
sa(dp1865
g2
S'238'
p1866
sg4
S'62'
p1867
sg6
S'127'
p1868
sg8
I1429365381
sa(dp1869
g2
S'235'
p1870
sg4
S'61'
p1871
sg6
S'127'
p1872
sg8
I1429365383
sa(dp1873
g2
S'231'
p1874
sg4
S'61'
p1875
sg6
S'127'
p1876
sg8
I1429365385
sa(dp1877
g2
S'230'
p1878
sg4
S'62'
p1879
sg6
S'127'
p1880
sg8
I1429365387
sa(dp1881
g2
S'228'
p1882
sg4
S'61'
p1883
sg6
S'127'
p1884
sg8
I1429365389
sa(dp1885
g2
S'228'
p1886
sg4
S'61'
p1887
sg6
S'127'
p1888
sg8
I1429365391
sa(dp1889
g2
S'228'
p1890
sg4
S'61'
p1891
sg6
S'127'
p1892
sg8
I1429365393
sa(dp1893
g2
S'224'
p1894
sg4
S'60'
p1895
sg6
S'127'
p1896
sg8
I1429365395
sa(dp1897
g2
S'225'
p1898
sg4
S'61'
p1899
sg6
S'127'
p1900
sg8
I1429365397
sa(dp1901
g2
S'222'
p1902
sg4
S'61'
p1903
sg6
S'127'
p1904
sg8
I1429365399
sa(dp1905
g2
S'222'
p1906
sg4
S'60'
p1907
sg6
S'127'
p1908
sg8
I1429365401
sa(dp1909
g2
S'219'
p1910
sg4
S'60'
p1911
sg6
S'127'
p1912
sg8
I1429365403
sa(dp1913
g2
S'222'
p1914
sg4
S'60'
p1915
sg6
S'127'
p1916
sg8
I1429365405
sa(dp1917
g2
S'218'
p1918
sg4
S'59'
p1919
sg6
S'127'
p1920
sg8
I1429365407
sa(dp1921
g2
S'217'
p1922
sg4
S'59'
p1923
sg6
S'127'
p1924
sg8
I1429365409
sa(dp1925
g2
S'219'
p1926
sg4
S'59'
p1927
sg6
S'127'
p1928
sg8
I1429365411
sa(dp1929
g2
S'215'
p1930
sg4
S'59'
p1931
sg6
S'127'
p1932
sg8
I1429365413
sa(dp1933
g2
S'212'
p1934
sg4
S'58'
p1935
sg6
S'127'
p1936
sg8
I1429365415
sa(dp1937
g2
S'213'
p1938
sg4
S'58'
p1939
sg6
S'127'
p1940
sg8
I1429365417
sa(dp1941
g2
S'210'
p1942
sg4
S'58'
p1943
sg6
S'127'
p1944
sg8
I1429365419
sa(dp1945
g2
S'209'
p1946
sg4
S'58'
p1947
sg6
S'127'
p1948
sg8
I1429365421
sa(dp1949
g2
S'206'
p1950
sg4
S'58'
p1951
sg6
S'127'
p1952
sg8
I1429365423
sa(dp1953
g2
S'210'
p1954
sg4
S'58'
p1955
sg6
S'127'
p1956
sg8
I1429365425
sa(dp1957
g2
S'206'
p1958
sg4
S'57'
p1959
sg6
S'127'
p1960
sg8
I1429365427
sa(dp1961
g2
S'206'
p1962
sg4
S'58'
p1963
sg6
S'127'
p1964
sg8
I1429365429
sa(dp1965
g2
S'201'
p1966
sg4
S'57'
p1967
sg6
S'127'
p1968
sg8
I1429365431
sa(dp1969
g2
S'201'
p1970
sg4
S'57'
p1971
sg6
S'127'
p1972
sg8
I1429365433
sa(dp1973
g2
S'203'
p1974
sg4
S'57'
p1975
sg6
S'127'
p1976
sg8
I1429365435
sa(dp1977
g2
S'200'
p1978
sg4
S'57'
p1979
sg6
S'127'
p1980
sg8
I1429365437
sa(dp1981
g2
S'200'
p1982
sg4
S'56'
p1983
sg6
S'127'
p1984
sg8
I1429365439
sa(dp1985
g2
S'203'
p1986
sg4
S'57'
p1987
sg6
S'127'
p1988
sg8
I1429365441
sa(dp1989
g2
S'199'
p1990
sg4
S'56'
p1991
sg6
S'127'
p1992
sg8
I1429365443
sa(dp1993
g2
S'198'
p1994
sg4
S'56'
p1995
sg6
S'127'
p1996
sg8
I1429365445
sa(dp1997
g2
S'195'
p1998
sg4
S'56'
p1999
sg6
S'127'
p2000
sg8
I1429365447
sa(dp2001
g2
S'196'
p2002
sg4
S'56'
p2003
sg6
S'127'
p2004
sg8
I1429365449
sa(dp2005
g2
S'194'
p2006
sg4
S'55'
p2007
sg6
S'127'
p2008
sg8
I1429365451
sa(dp2009
g2
S'193'
p2010
sg4
S'56'
p2011
sg6
S'127'
p2012
sg8
I1429365453
sa(dp2013
g2
S'192'
p2014
sg4
S'55'
p2015
sg6
S'127'
p2016
sg8
I1429365455
sa(dp2017
g2
S'190'
p2018
sg4
S'55'
p2019
sg6
S'127'
p2020
sg8
I1429365457
sa(dp2021
g2
S'187'
p2022
sg4
S'55'
p2023
sg6
S'127'
p2024
sg8
I1429365459
sa(dp2025
g2
S'191'
p2026
sg4
S'55'
p2027
sg6
S'127'
p2028
sg8
I1429365461
sa(dp2029
g2
S'187'
p2030
sg4
S'55'
p2031
sg6
S'127'
p2032
sg8
I1429365463
sa(dp2033
g2
S'187'
p2034
sg4
S'55'
p2035
sg6
S'127'
p2036
sg8
I1429365465
sa(dp2037
g2
S'185'
p2038
sg4
S'54'
p2039
sg6
S'127'
p2040
sg8
I1429365467
sa(dp2041
g2
S'184'
p2042
sg4
S'54'
p2043
sg6
S'127'
p2044
sg8
I1429365469
sa(dp2045
g2
S'183'
p2046
sg4
S'54'
p2047
sg6
S'127'
p2048
sg8
I1429365471
sa(dp2049
g2
S'183'
p2050
sg4
S'54'
p2051
sg6
S'127'
p2052
sg8
I1429365473
sa(dp2053
g2
S'182'
p2054
sg4
S'54'
p2055
sg6
S'127'
p2056
sg8
I1429365475
sa(dp2057
g2
S'180'
p2058
sg4
S'54'
p2059
sg6
S'127'
p2060
sg8
I1429365477
sa(dp2061
g2
S'181'
p2062
sg4
S'54'
p2063
sg6
S'127'
p2064
sg8
I1429365479
sa(dp2065
g2
S'182'
p2066
sg4
S'54'
p2067
sg6
S'127'
p2068
sg8
I1429365481
sa(dp2069
g2
S'182'
p2070
sg4
S'53'
p2071
sg6
S'127'
p2072
sg8
I1429365483
sa(dp2073
g2
S'178'
p2074
sg4
S'53'
p2075
sg6
S'127'
p2076
sg8
I1429365485
sa(dp2077
g2
S'177'
p2078
sg4
S'53'
p2079
sg6
S'127'
p2080
sg8
I1429365487
sa(dp2081
g2
S'176'
p2082
sg4
S'53'
p2083
sg6
S'127'
p2084
sg8
I1429365489
sa(dp2085
g2
S'176'
p2086
sg4
S'53'
p2087
sg6
S'127'
p2088
sg8
I1429365491
sa(dp2089
g2
S'175'
p2090
sg4
S'53'
p2091
sg6
S'127'
p2092
sg8
I1429365493
sa(dp2093
g2
S'173'
p2094
sg4
S'52'
p2095
sg6
S'127'
p2096
sg8
I1429365495
sa(dp2097
g2
S'172'
p2098
sg4
S'52'
p2099
sg6
S'127'
p2100
sg8
I1429365497
sa(dp2101
g2
S'171'
p2102
sg4
S'52'
p2103
sg6
S'127'
p2104
sg8
I1429365499
sa(dp2105
g2
S'168'
p2106
sg4
S'52'
p2107
sg6
S'127'
p2108
sg8
I1429365501
sa(dp2109
g2
S'171'
p2110
sg4
S'52'
p2111
sg6
S'127'
p2112
sg8
I1429365503
sa(dp2113
g2
S'168'
p2114
sg4
S'52'
p2115
sg6
S'127'
p2116
sg8
I1429365505
sa(dp2117
g2
S'166'
p2118
sg4
S'52'
p2119
sg6
S'127'
p2120
sg8
I1429365507
sa(dp2121
g2
S'168'
p2122
sg4
S'52'
p2123
sg6
S'127'
p2124
sg8
I1429365509
sa(dp2125
g2
S'166'
p2126
sg4
S'52'
p2127
sg6
S'127'
p2128
sg8
I1429365511
sa(dp2129
g2
S'164'
p2130
sg4
S'51'
p2131
sg6
S'127'
p2132
sg8
I1429365513
sa(dp2133
g2
S'163'
p2134
sg4
S'51'
p2135
sg6
S'127'
p2136
sg8
I1429365515
sa(dp2137
g2
S'163'
p2138
sg4
S'51'
p2139
sg6
S'127'
p2140
sg8
I1429365517
sa(dp2141
g2
S'161'
p2142
sg4
S'51'
p2143
sg6
S'127'
p2144
sg8
I1429365519
sa(dp2145
g2
S'160'
p2146
sg4
S'51'
p2147
sg6
S'127'
p2148
sg8
I1429365521
sa(dp2149
g2
S'160'
p2150
sg4
S'51'
p2151
sg6
S'127'
p2152
sg8
I1429365523
sa(dp2153
g2
S'160'
p2154
sg4
S'50'
p2155
sg6
S'127'
p2156
sg8
I1429365525
sa(dp2157
g2
S'159'
p2158
sg4
S'51'
p2159
sg6
S'127'
p2160
sg8
I1429365527
sa(dp2161
g2
S'155'
p2162
sg4
S'50'
p2163
sg6
S'127'
p2164
sg8
I1429365529
sa(dp2165
g2
S'154'
p2166
sg4
S'50'
p2167
sg6
S'127'
p2168
sg8
I1429365531
sa(dp2169
g2
S'156'
p2170
sg4
S'50'
p2171
sg6
S'127'
p2172
sg8
I1429365533
sa(dp2173
g2
S'150'
p2174
sg4
S'50'
p2175
sg6
S'127'
p2176
sg8
I1429365535
sa(dp2177
g2
S'155'
p2178
sg4
S'50'
p2179
sg6
S'127'
p2180
sg8
I1429365537
sa(dp2181
g2
S'155'
p2182
sg4
S'49'
p2183
sg6
S'127'
p2184
sg8
I1429365539
sa(dp2185
g2
S'153'
p2186
sg4
S'50'
p2187
sg6
S'127'
p2188
sg8
I1429365541
sa(dp2189
g2
S'153'
p2190
sg4
S'50'
p2191
sg6
S'127'
p2192
sg8
I1429365543
sa(dp2193
g2
S'149'
p2194
sg4
S'49'
p2195
sg6
S'127'
p2196
sg8
I1429365545
sa(dp2197
g2
S'150'
p2198
sg4
S'49'
p2199
sg6
S'127'
p2200
sg8
I1429365547
sa(dp2201
g2
S'154'
p2202
sg4
S'49'
p2203
sg6
S'127'
p2204
sg8
I1429365549
sa(dp2205
g2
S'152'
p2206
sg4
S'49'
p2207
sg6
S'127'
p2208
sg8
I1429365551
sa(dp2209
g2
S'150'
p2210
sg4
S'49'
p2211
sg6
S'127'
p2212
sg8
I1429365553
sa(dp2213
g2
S'148'
p2214
sg4
S'48'
p2215
sg6
S'127'
p2216
sg8
I1429365555
sa(dp2217
g2
S'149'
p2218
sg4
S'48'
p2219
sg6
S'127'
p2220
sg8
I1429365557
sa(dp2221
g2
S'150'
p2222
sg4
S'48'
p2223
sg6
S'127'
p2224
sg8
I1429365559
sa(dp2225
g2
S'143'
p2226
sg4
S'48'
p2227
sg6
S'127'
p2228
sg8
I1429365561
sa(dp2229
g2
S'147'
p2230
sg4
S'48'
p2231
sg6
S'127'
p2232
sg8
I1429365563
sa(dp2233
g2
S'146'
p2234
sg4
S'48'
p2235
sg6
S'127'
p2236
sg8
I1429365565
sa(dp2237
g2
S'145'
p2238
sg4
S'48'
p2239
sg6
S'127'
p2240
sg8
I1429365567
sa(dp2241
g2
S'146'
p2242
sg4
S'48'
p2243
sg6
S'127'
p2244
sg8
I1429365569
sa(dp2245
g2
S'145'
p2246
sg4
S'48'
p2247
sg6
S'127'
p2248
sg8
I1429365571
sa(dp2249
g2
S'141'
p2250
sg4
S'48'
p2251
sg6
S'127'
p2252
sg8
I1429365573
sa(dp2253
g2
S'145'
p2254
sg4
S'47'
p2255
sg6
S'127'
p2256
sg8
I1429365575
sa(dp2257
g2
S'141'
p2258
sg4
S'47'
p2259
sg6
S'127'
p2260
sg8
I1429365577
sa(dp2261
g2
S'141'
p2262
sg4
S'47'
p2263
sg6
S'127'
p2264
sg8
I1429365579
sa(dp2265
g2
S'140'
p2266
sg4
S'47'
p2267
sg6
S'127'
p2268
sg8
I1429365581
sa(dp2269
g2
S'139'
p2270
sg4
S'47'
p2271
sg6
S'127'
p2272
sg8
I1429365583
sa(dp2273
g2
S'142'
p2274
sg4
S'47'
p2275
sg6
S'127'
p2276
sg8
I1429365585
sa(dp2277
g2
S'137'
p2278
sg4
S'47'
p2279
sg6
S'127'
p2280
sg8
I1429365587
sa(dp2281
g2
S'138'
p2282
sg4
S'47'
p2283
sg6
S'127'
p2284
sg8
I1429365589
sa(dp2285
g2
S'137'
p2286
sg4
S'46'
p2287
sg6
S'127'
p2288
sg8
I1429365591
sa(dp2289
g2
S'138'
p2290
sg4
S'47'
p2291
sg6
S'127'
p2292
sg8
I1429365593
sa(dp2293
g2
S'135'
p2294
sg4
S'46'
p2295
sg6
S'127'
p2296
sg8
I1429365595
sa(dp2297
g2
S'135'
p2298
sg4
S'46'
p2299
sg6
S'127'
p2300
sg8
I1429365597
sa(dp2301
g2
S'135'
p2302
sg4
S'46'
p2303
sg6
S'127'
p2304
sg8
I1429365599
sa(dp2305
g2
S'135'
p2306
sg4
S'46'
p2307
sg6
S'127'
p2308
sg8
I1429365601
sa(dp2309
g2
S'134'
p2310
sg4
S'46'
p2311
sg6
S'127'
p2312
sg8
I1429365603
sa(dp2313
g2
S'132'
p2314
sg4
S'46'
p2315
sg6
S'127'
p2316
sg8
I1429365605
sa(dp2317
g2
S'132'
p2318
sg4
S'46'
p2319
sg6
S'127'
p2320
sg8
I1429365607
sa(dp2321
g2
S'132'
p2322
sg4
S'46'
p2323
sg6
S'127'
p2324
sg8
I1429365609
sa(dp2325
g2
S'135'
p2326
sg4
S'46'
p2327
sg6
S'127'
p2328
sg8
I1429365611
sa(dp2329
g2
S'128'
p2330
sg4
S'46'
p2331
sg6
S'127'
p2332
sg8
I1429365614
sa(dp2333
g2
S'130'
p2334
sg4
S'45'
p2335
sg6
S'127'
p2336
sg8
I1429365616
sa(dp2337
g2
S'131'
p2338
sg4
S'46'
p2339
sg6
S'127'
p2340
sg8
I1429365618
sa(dp2341
g2
S'130'
p2342
sg4
S'46'
p2343
sg6
S'127'
p2344
sg8
I1429365620
sa(dp2345
g2
S'127'
p2346
sg4
S'45'
p2347
sg6
S'127'
p2348
sg8
I1429365622
sa(dp2349
g2
S'127'
p2350
sg4
S'45'
p2351
sg6
S'127'
p2352
sg8
I1429365624
sa(dp2353
g2
S'130'
p2354
sg4
S'45'
p2355
sg6
S'127'
p2356
sg8
I1429365626
sa(dp2357
g2
S'127'
p2358
sg4
S'45'
p2359
sg6
S'127'
p2360
sg8
I1429365628
sa(dp2361
g2
S'125'
p2362
sg4
S'45'
p2363
sg6
S'127'
p2364
sg8
I1429365630
sa(dp2365
g2
S'126'
p2366
sg4
S'45'
p2367
sg6
S'127'
p2368
sg8
I1429365632
sa(dp2369
g2
S'125'
p2370
sg4
S'45'
p2371
sg6
S'127'
p2372
sg8
I1429365634
sa(dp2373
g2
S'126'
p2374
sg4
S'45'
p2375
sg6
S'127'
p2376
sg8
I1429365636
sa(dp2377
g2
S'128'
p2378
sg4
S'45'
p2379
sg6
S'127'
p2380
sg8
I1429365638
sa(dp2381
g2
S'119'
p2382
sg4
S'44'
p2383
sg6
S'127'
p2384
sg8
I1429365640
sa(dp2385
g2
S'122'
p2386
sg4
S'44'
p2387
sg6
S'127'
p2388
sg8
I1429365642
sa(dp2389
g2
S'122'
p2390
sg4
S'44'
p2391
sg6
S'127'
p2392
sg8
I1429365644
sa(dp2393
g2
S'121'
p2394
sg4
S'44'
p2395
sg6
S'127'
p2396
sg8
I1429365646
sa(dp2397
g2
S'121'
p2398
sg4
S'44'
p2399
sg6
S'127'
p2400
sg8
I1429365648
sa(dp2401
g2
S'121'
p2402
sg4
S'44'
p2403
sg6
S'127'
p2404
sg8
I1429365650
sa(dp2405
g2
S'121'
p2406
sg4
S'44'
p2407
sg6
S'127'
p2408
sg8
I1429365652
sa(dp2409
g2
S'121'
p2410
sg4
S'44'
p2411
sg6
S'127'
p2412
sg8
I1429365654
sa(dp2413
g2
S'119'
p2414
sg4
S'44'
p2415
sg6
S'127'
p2416
sg8
I1429365656
sa(dp2417
g2
S'117'
p2418
sg4
S'44'
p2419
sg6
S'127'
p2420
sg8
I1429365658
sa(dp2421
g2
S'118'
p2422
sg4
S'44'
p2423
sg6
S'127'
p2424
sg8
I1429365660
sa(dp2425
g2
S'117'
p2426
sg4
S'43'
p2427
sg6
S'127'
p2428
sg8
I1429365662
sa(dp2429
g2
S'115'
p2430
sg4
S'43'
p2431
sg6
S'127'
p2432
sg8
I1429365664
sa(dp2433
g2
S'116'
p2434
sg4
S'43'
p2435
sg6
S'127'
p2436
sg8
I1429365666
sa(dp2437
g2
S'120'
p2438
sg4
S'43'
p2439
sg6
S'127'
p2440
sg8
I1429365668
sa(dp2441
g2
S'114'
p2442
sg4
S'43'
p2443
sg6
S'127'
p2444
sg8
I1429365670
sa(dp2445
g2
S'115'
p2446
sg4
S'43'
p2447
sg6
S'127'
p2448
sg8
I1429365672
sa(dp2449
g2
S'115'
p2450
sg4
S'43'
p2451
sg6
S'127'
p2452
sg8
I1429365674
sa(dp2453
g2
S'113'
p2454
sg4
S'43'
p2455
sg6
S'127'
p2456
sg8
I1429365676
sa(dp2457
g2
S'115'
p2458
sg4
S'43'
p2459
sg6
S'127'
p2460
sg8
I1429365678
sa(dp2461
g2
S'113'
p2462
sg4
S'43'
p2463
sg6
S'127'
p2464
sg8
I1429365680
sa(dp2465
g2
S'109'
p2466
sg4
S'43'
p2467
sg6
S'127'
p2468
sg8
I1429365682
sa(dp2469
g2
S'113'
p2470
sg4
S'43'
p2471
sg6
S'127'
p2472
sg8
I1429365684
sa(dp2473
g2
S'110'
p2474
sg4
S'43'
p2475
sg6
S'127'
p2476
sg8
I1429365686
sa(dp2477
g2
S'112'
p2478
sg4
S'42'
p2479
sg6
S'127'
p2480
sg8
I1429365688
sa(dp2481
g2
S'108'
p2482
sg4
S'42'
p2483
sg6
S'127'
p2484
sg8
I1429365690
sa(dp2485
g2
S'111'
p2486
sg4
S'43'
p2487
sg6
S'127'
p2488
sg8
I1429365692
sa(dp2489
g2
S'112'
p2490
sg4
S'42'
p2491
sg6
S'127'
p2492
sg8
I1429365694
sa(dp2493
g2
S'111'
p2494
sg4
S'42'
p2495
sg6
S'127'
p2496
sg8
I1429365696
sa(dp2497
g2
S'110'
p2498
sg4
S'42'
p2499
sg6
S'127'
p2500
sg8
I1429365698
sa(dp2501
g2
S'112'
p2502
sg4
S'42'
p2503
sg6
S'127'
p2504
sg8
I1429365700
sa(dp2505
g2
S'107'
p2506
sg4
S'42'
p2507
sg6
S'127'
p2508
sg8
I1429365702
sa(dp2509
g2
S'107'
p2510
sg4
S'42'
p2511
sg6
S'127'
p2512
sg8
I1429365704
sa(dp2513
g2
S'109'
p2514
sg4
S'42'
p2515
sg6
S'127'
p2516
sg8
I1429365706
sa(dp2517
g2
S'107'
p2518
sg4
S'42'
p2519
sg6
S'127'
p2520
sg8
I1429365708
sa(dp2521
g2
S'107'
p2522
sg4
S'42'
p2523
sg6
S'127'
p2524
sg8
I1429365710
sa(dp2525
g2
S'110'
p2526
sg4
S'41'
p2527
sg6
S'127'
p2528
sg8
I1429365712
sa(dp2529
g2
S'103'
p2530
sg4
S'41'
p2531
sg6
S'127'
p2532
sg8
I1429365714
sa(dp2533
g2
S'107'
p2534
sg4
S'41'
p2535
sg6
S'127'
p2536
sg8
I1429365716
sa(dp2537
g2
S'106'
p2538
sg4
S'41'
p2539
sg6
S'127'
p2540
sg8
I1429365718
sa(dp2541
g2
S'106'
p2542
sg4
S'41'
p2543
sg6
S'127'
p2544
sg8
I1429365720
sa(dp2545
g2
S'105'
p2546
sg4
S'41'
p2547
sg6
S'127'
p2548
sg8
I1429365722
sa(dp2549
g2
S'106'
p2550
sg4
S'41'
p2551
sg6
S'127'
p2552
sg8
I1429365724
sa(dp2553
g2
S'105'
p2554
sg4
S'41'
p2555
sg6
S'127'
p2556
sg8
I1429365726
sa(dp2557
g2
S'104'
p2558
sg4
S'41'
p2559
sg6
S'127'
p2560
sg8
I1429365728
sa(dp2561
g2
S'101'
p2562
sg4
S'41'
p2563
sg6
S'127'
p2564
sg8
I1429365730
sa(dp2565
g2
S'103'
p2566
sg4
S'41'
p2567
sg6
S'127'
p2568
sg8
I1429365732
sa(dp2569
g2
S'100'
p2570
sg4
S'41'
p2571
sg6
S'127'
p2572
sg8
I1429365734
sa(dp2573
g2
S'101'
p2574
sg4
S'41'
p2575
sg6
S'127'
p2576
sg8
I1429365736
sa(dp2577
g2
S'103'
p2578
sg4
S'40'
p2579
sg6
S'127'
p2580
sg8
I1429365738
sa(dp2581
g2
S'101'
p2582
sg4
S'40'
p2583
sg6
S'127'
p2584
sg8
I1429365740
sa(dp2585
g2
S'103'
p2586
sg4
S'40'
p2587
sg6
S'127'
p2588
sg8
I1429365742
sa(dp2589
g2
S'101'
p2590
sg4
S'40'
p2591
sg6
S'127'
p2592
sg8
I1429365744
sa(dp2593
g2
S'102'
p2594
sg4
S'40'
p2595
sg6
S'127'
p2596
sg8
I1429365746
sa(dp2597
g2
S'102'
p2598
sg4
S'40'
p2599
sg6
S'127'
p2600
sg8
I1429365748
sa(dp2601
g2
S'101'
p2602
sg4
S'40'
p2603
sg6
S'127'
p2604
sg8
I1429365750
sa(dp2605
g2
S'100'
p2606
sg4
S'40'
p2607
sg6
S'127'
p2608
sg8
I1429365752
sa(dp2609
g2
S'101'
p2610
sg4
S'40'
p2611
sg6
S'127'
p2612
sg8
I1429365754
sa(dp2613
g2
S'99'
p2614
sg4
S'40'
p2615
sg6
S'127'
p2616
sg8
I1429365756
sa(dp2617
g2
S'99'
p2618
sg4
S'40'
p2619
sg6
S'127'
p2620
sg8
I1429365758
sa(dp2621
g2
S'99'
p2622
sg4
S'40'
p2623
sg6
S'127'
p2624
sg8
I1429365760
sa(dp2625
g2
S'99'
p2626
sg4
S'40'
p2627
sg6
S'127'
p2628
sg8
I1429365762
sa(dp2629
g2
S'98'
p2630
sg4
S'40'
p2631
sg6
S'127'
p2632
sg8
I1429365764
sa(dp2633
g2
S'98'
p2634
sg4
S'40'
p2635
sg6
S'127'
p2636
sg8
I1429365766
sa(dp2637
g2
S'94'
p2638
sg4
S'39'
p2639
sg6
S'127'
p2640
sg8
I1429365768
sa(dp2641
g2
S'94'
p2642
sg4
S'39'
p2643
sg6
S'127'
p2644
sg8
I1429365770
sa(dp2645
g2
S'97'
p2646
sg4
S'39'
p2647
sg6
S'127'
p2648
sg8
I1429365772
sa(dp2649
g2
S'96'
p2650
sg4
S'39'
p2651
sg6
S'127'
p2652
sg8
I1429365774
sa(dp2653
g2
S'98'
p2654
sg4
S'39'
p2655
sg6
S'127'
p2656
sg8
I1429365776
sa(dp2657
g2
S'99'
p2658
sg4
S'39'
p2659
sg6
S'127'
p2660
sg8
I1429365778
sa(dp2661
g2
S'97'
p2662
sg4
S'39'
p2663
sg6
S'127'
p2664
sg8
I1429365780
sa(dp2665
g2
S'96'
p2666
sg4
S'39'
p2667
sg6
S'127'
p2668
sg8
I1429365782
sa(dp2669
g2
S'97'
p2670
sg4
S'39'
p2671
sg6
S'127'
p2672
sg8
I1429365784
sa(dp2673
g2
S'97'
p2674
sg4
S'39'
p2675
sg6
S'127'
p2676
sg8
I1429365786
sa(dp2677
g2
S'97'
p2678
sg4
S'39'
p2679
sg6
S'127'
p2680
sg8
I1429365788
sa(dp2681
g2
S'95'
p2682
sg4
S'38'
p2683
sg6
S'127'
p2684
sg8
I1429365790
sa(dp2685
g2
S'94'
p2686
sg4
S'39'
p2687
sg6
S'127'
p2688
sg8
I1429365792
sa(dp2689
g2
S'95'
p2690
sg4
S'39'
p2691
sg6
S'127'
p2692
sg8
I1429365794
sa(dp2693
g2
S'95'
p2694
sg4
S'38'
p2695
sg6
S'127'
p2696
sg8
I1429365796
sa(dp2697
g2
S'96'
p2698
sg4
S'39'
p2699
sg6
S'127'
p2700
sg8
I1429365798
sa(dp2701
g2
S'97'
p2702
sg4
S'38'
p2703
sg6
S'127'
p2704
sg8
I1429365800
sa(dp2705
g2
S'96'
p2706
sg4
S'38'
p2707
sg6
S'127'
p2708
sg8
I1429365802
sa(dp2709
g2
S'92'
p2710
sg4
S'38'
p2711
sg6
S'127'
p2712
sg8
I1429365804
sa(dp2713
g2
S'94'
p2714
sg4
S'38'
p2715
sg6
S'127'
p2716
sg8
I1429365806
sa(dp2717
g2
S'94'
p2718
sg4
S'38'
p2719
sg6
S'127'
p2720
sg8
I1429365808
sa(dp2721
g2
S'93'
p2722
sg4
S'38'
p2723
sg6
S'127'
p2724
sg8
I1429365810
sa(dp2725
g2
S'94'
p2726
sg4
S'38'
p2727
sg6
S'127'
p2728
sg8
I1429365812
sa(dp2729
g2
S'92'
p2730
sg4
S'38'
p2731
sg6
S'127'
p2732
sg8
I1429365814
sa(dp2733
g2
S'91'
p2734
sg4
S'38'
p2735
sg6
S'127'
p2736
sg8
I1429365816
sa(dp2737
g2
S'93'
p2738
sg4
S'38'
p2739
sg6
S'127'
p2740
sg8
I1429365818
sa(dp2741
g2
S'92'
p2742
sg4
S'38'
p2743
sg6
S'127'
p2744
sg8
I1429365820
sa(dp2745
g2
S'88'
p2746
sg4
S'38'
p2747
sg6
S'127'
p2748
sg8
I1429365822
sa(dp2749
g2
S'93'
p2750
sg4
S'37'
p2751
sg6
S'127'
p2752
sg8
I1429365824
sa(dp2753
g2
S'89'
p2754
sg4
S'38'
p2755
sg6
S'127'
p2756
sg8
I1429365826
sa(dp2757
g2
S'91'
p2758
sg4
S'38'
p2759
sg6
S'127'
p2760
sg8
I1429365828
sa(dp2761
g2
S'92'
p2762
sg4
S'37'
p2763
sg6
S'127'
p2764
sg8
I1429365830
sa(dp2765
g2
S'88'
p2766
sg4
S'37'
p2767
sg6
S'127'
p2768
sg8
I1429365832
sa(dp2769
g2
S'89'
p2770
sg4
S'37'
p2771
sg6
S'127'
p2772
sg8
I1429365834
sa.